target datalayout = "e-m:e-p270:32:32-p271:32:32-p272:64:64-i64:64-i128:128-f80:128-n8:16:32:64-S128"
target triple = "x86_64-pc-linux-gnu"

; Function Attrs: nounwind uwtable
define dso_local ptr @asc_initcap(ptr noundef %0, i64 noundef %1) #0 {
  %3 = alloca ptr, align 8
  %4 = alloca ptr, align 8
  %5 = alloca i64, align 8
  %6 = alloca ptr, align 8
  %7 = alloca ptr, align 8
  %8 = alloca i32, align 4
  %9 = alloca i32, align 4
  %10 = alloca i8, align 1
  store ptr %0, ptr %4, align 8
  store i64 %1, ptr %5, align 8
  call void @llvm.lifetime.start.p0(i64 8, ptr %6) #11
  call void @llvm.lifetime.start.p0(i64 8, ptr %7) #11
  call void @llvm.lifetime.start.p0(i64 4, ptr %8) #11
  store i32 0, ptr %8, align 4
  %11 = load ptr, ptr %4, align 8
  %12 = icmp ne ptr %11, null
  br i1 %12, label %14, label %13

13:                                               ; preds = %2
  store ptr null, ptr %3, align 8
  store i32 1, ptr %9, align 4
  br label %70

14:                                               ; preds = %2
  %15 = load ptr, ptr %4, align 8
  %16 = load i64, ptr %5, align 8
  %17 = call ptr @pnstrdup(ptr noundef %15, i64 noundef %16)
  store ptr %17, ptr %6, align 8
  %18 = load ptr, ptr %6, align 8
  store ptr %18, ptr %7, align 8
  br label %19

19:                                               ; preds = %65, %14
  %20 = load ptr, ptr %7, align 8
  %21 = load i8, ptr %20, align 1
  %22 = icmp ne i8 %21, 0
  br i1 %22, label %23, label %68

23:                                               ; preds = %19
  call void @llvm.lifetime.start.p0(i64 1, ptr %10) #11
  %24 = load i32, ptr %8, align 4
  %25 = icmp ne i32 %24, 0
  br i1 %25, label %26, label %31

26:                                               ; preds = %23
  %27 = load ptr, ptr %7, align 8
  %28 = load i8, ptr %27, align 1
  %29 = call zeroext i8 @pg_ascii_tolower(i8 noundef zeroext %28)
  store i8 %29, ptr %10, align 1
  %30 = load ptr, ptr %7, align 8
  store i8 %29, ptr %30, align 1
  br label %36

31:                                               ; preds = %23
  %32 = load ptr, ptr %7, align 8
  %33 = load i8, ptr %32, align 1
  %34 = call zeroext i8 @pg_ascii_toupper(i8 noundef zeroext %33)
  store i8 %34, ptr %10, align 1
  %35 = load ptr, ptr %7, align 8
  store i8 %34, ptr %35, align 1
  br label %36

36:                                               ; preds = %31, %26
  %37 = load i8, ptr %10, align 1
  %38 = sext i8 %37 to i32
  %39 = icmp sge i32 %38, 65
  br i1 %39, label %40, label %44

40:                                               ; preds = %36
  %41 = load i8, ptr %10, align 1
  %42 = sext i8 %41 to i32
  %43 = icmp sle i32 %42, 90
  br i1 %43, label %62, label %44

44:                                               ; preds = %40, %36
  %45 = load i8, ptr %10, align 1
  %46 = sext i8 %45 to i32
  %47 = icmp sge i32 %46, 97
  br i1 %47, label %48, label %52

48:                                               ; preds = %44
  %49 = load i8, ptr %10, align 1
  %50 = sext i8 %49 to i32
  %51 = icmp sle i32 %50, 122
  br i1 %51, label %62, label %52

52:                                               ; preds = %48, %44
  %53 = load i8, ptr %10, align 1
  %54 = sext i8 %53 to i32
  %55 = icmp sge i32 %54, 48
  br i1 %55, label %56, label %60

56:                                               ; preds = %52
  %57 = load i8, ptr %10, align 1
  %58 = sext i8 %57 to i32
  %59 = icmp sle i32 %58, 57
  br label %60

60:                                               ; preds = %56, %52
  %61 = phi i1 [ false, %52 ], [ %59, %56 ]
  br label %62

62:                                               ; preds = %60, %48, %40
  %63 = phi i1 [ true, %48 ], [ true, %40 ], [ %61, %60 ]
  %64 = zext i1 %63 to i32
  store i32 %64, ptr %8, align 4
  call void @llvm.lifetime.end.p0(i64 1, ptr %10) #11
  br label %65

65:                                               ; preds = %62
  %66 = load ptr, ptr %7, align 8
  %67 = getelementptr inbounds nuw i8, ptr %66, i32 1
  store ptr %67, ptr %7, align 8
  br label %19, !llvm.loop !9

68:                                               ; preds = %19
  %69 = load ptr, ptr %6, align 8
  store ptr %69, ptr %3, align 8
  store i32 1, ptr %9, align 4
  br label %70

70:                                               ; preds = %68, %13
  call void @llvm.lifetime.end.p0(i64 4, ptr %8) #11
  call void @llvm.lifetime.end.p0(i64 8, ptr %7) #11
  call void @llvm.lifetime.end.p0(i64 8, ptr %6) #11
  %71 = load ptr, ptr %3, align 8
  ret ptr %71
}