; Function Attrs: nounwind uwtable
define dso_local noundef ptr @asc_initcap(ptr noundef %0, i64 noundef %1) local_unnamed_addr #0 {
  %.not = icmp eq ptr %0, null
  br i1 %.not, label %.loopexit, label %3

3:                                                ; preds = %2
  %4 = tail call ptr @pnstrdup(ptr noundef nonnull %0, i64 noundef %1) #18
  %5 = load i8, ptr %4, align 1
  %.not2834 = icmp eq i8 %5, 0
  br i1 %.not2834, label %.loopexit, label %.lr.ph

.lr.ph:                                           ; preds = %3, %11
  %6 = phi i8 [ %18, %11 ], [ %5, %3 ]
  %.02336 = phi i1 [ %16, %11 ], [ true, %3 ]
  %.02435 = phi ptr [ %17, %11 ], [ %4, %3 ]
  br i1 %.02336, label %9, label %7

7:                                                ; preds = %.lr.ph
  %8 = tail call zeroext i8 @pg_ascii_tolower(i8 noundef zeroext %6) #18
  br label %11

9:                                                ; preds = %.lr.ph
  %10 = tail call zeroext i8 @pg_ascii_toupper(i8 noundef zeroext %6) #18
  br label %11

11:                                               ; preds = %9, %7
  %storemerge = phi i8 [ %10, %9 ], [ %8, %7 ]
  store i8 %storemerge, ptr %.02435, align 1
  %12 = and i8 %storemerge, -33
  %13 = add i8 %12, -91
  %or.cond33 = icmp ult i8 %13, -26
  %14 = sext i8 %storemerge to i32
  %15 = add nsw i32 %14, -58
  %.not32 = icmp ult i32 %15, -10
  %16 = select i1 %or.cond33, i1 %.not32, i1 false
  %17 = getelementptr inbounds nuw i8, ptr %.02435, i64 1
  %18 = load i8, ptr %17, align 1
  %.not28 = icmp eq i8 %18, 0
  br i1 %.not28, label %.loopexit, label %.lr.ph, !llvm.loop !9

.loopexit:                                        ; preds = %11, %3, %2
  %.025 = phi ptr [ null, %2 ], [ %4, %3 ], [ %4, %11 ]
  ret ptr %.025
}